target datalayout = "e-m:e-p270:32:32-p271:32:32-p272:64:64-i64:64-i128:128-f80:128-n8:16:32:64-S128"
target triple = "x86_64-pc-linux-gnu"

%struct.EnumContext = type { %"class.Luau::DenseHashMap.673", %"class.Luau::DenseHashMap.678" }
%"class.Luau::DenseHashMap.673" = type { %"class.Luau::detail::DenseHashTable.674" }
%"class.Luau::detail::DenseHashTable.674" = type <{ ptr, i64, i64, ptr, %"struct.Luau::DenseHashPointer", %"struct.std::equal_to.675", [6 x i8] }>
%"struct.Luau::DenseHashPointer" = type { i8 }
%"struct.std::equal_to.675" = type { i8 }
%"class.Luau::DenseHashMap.678" = type { %"class.Luau::detail::DenseHashTable.679" }
%"class.Luau::detail::DenseHashTable.679" = type <{ ptr, i64, i64, ptr, %"struct.Luau::DenseHashPointer", %"struct.std::equal_to.675", [6 x i8] }>
%class.anon.683 = type { i8 }

; Function Attrs: mustprogress uwtable
define internal void @"_ZZL21DOCTEST_ANON_FUNC_116vENK3$_1clEPvS0_S0_PKc"(ptr noundef nonnull align 1 dereferenceable(1) %0, ptr noundef %1, ptr noundef %2, ptr noundef %3, ptr noundef %4) #4 align 2 {
  %6 = alloca ptr, align 8
  %7 = alloca ptr, align 8
  %8 = alloca ptr, align 8
  %9 = alloca ptr, align 8
  %10 = alloca ptr, align 8
  %11 = alloca ptr, align 8
  store ptr %0, ptr %6, align 8
  store ptr %1, ptr %7, align 8
  store ptr %2, ptr %8, align 8
  store ptr %3, ptr %9, align 8
  store ptr %4, ptr %10, align 8
  %12 = load ptr, ptr %7, align 8
  store ptr %12, ptr %11, align 8
  %13 = load ptr, ptr %9, align 8
  %14 = load ptr, ptr %11, align 8
  %15 = getelementptr inbounds %struct.EnumContext, ptr %14, i32 0, i32 1
  %16 = call noundef nonnull align 8 dereferenceable(8) ptr @_ZN4Luau12DenseHashMapIPvS1_NS_16DenseHashPointerESt8equal_toIS1_EEixERKS1_(ptr noundef nonnull align 8 dereferenceable(40) %15, ptr noundef nonnull align 8 dereferenceable(8) %8)
  store ptr %13, ptr %16, align 8
  ret void
}

; Function Attrs: mustprogress uwtable
define internal void @"_ZZL21DOCTEST_ANON_FUNC_116vEN3$_18__invokeEPvS0_S0_PKc"(ptr noundef %0, ptr noundef %1, ptr noundef %2, ptr noundef %3) #4 align 2 {
  %5 = alloca ptr, align 8
  %6 = alloca ptr, align 8
  %7 = alloca ptr, align 8
  %8 = alloca ptr, align 8
  %9 = alloca %class.anon.683, align 1
  store ptr %0, ptr %5, align 8
  store ptr %1, ptr %6, align 8
  store ptr %2, ptr %7, align 8
  store ptr %3, ptr %8, align 8
  %10 = load ptr, ptr %5, align 8
  %11 = load ptr, ptr %6, align 8
  %12 = load ptr, ptr %7, align 8
  %13 = load ptr, ptr %8, align 8
  call void @"_ZZL21DOCTEST_ANON_FUNC_116vENK3$_1clEPvS0_S0_PKc"(ptr noundef nonnull align 1 dereferenceable(1) %9, ptr noundef %10, ptr noundef %11, ptr noundef %12, ptr noundef %13)
  ret void
}