; Function Attrs: mustprogress uwtable
define internal void @"_ZZL21DOCTEST_ANON_FUNC_116vEN3$_18__invokeEPvS0_S0_PKc"(ptr noundef %0, ptr noundef %1, ptr noundef %2, ptr nocapture readnone %3) #4 align 2 {
  %5 = alloca ptr, align 8
  call void @llvm.lifetime.start.p0(i64 8, ptr nonnull %5)
  store ptr %1, ptr %5, align 8
  %6 = getelementptr inbounds i8, ptr %0, i64 40
  %7 = call noundef nonnull align 8 dereferenceable(8) ptr @_ZN4Luau12DenseHashMapIPvS1_NS_16DenseHashPointerESt8equal_toIS1_EEixERKS1_(ptr noundef nonnull align 8 dereferenceable(40) %6, ptr noundef nonnull align 8 dereferenceable(8) %5)
  store ptr %2, ptr %7, align 8
  call void @llvm.lifetime.end.p0(i64 8, ptr nonnull %5)
  ret void
}